Certificate:
    Data:
        Version: 3 (0x2)
        Serial Number:
            04:09:d6:45:d2:cf:97:9f:31:e5:ff:a7:46:d9:da:63
        Signature Algorithm: sha256WithRSAEncryption
        Issuer: CN=Easy-RSA CA
        Validity
            Not Before: Apr  8 07:31:59 2024 GMT
            Not After : Jul 12 07:31:59 2026 GMT
        Subject: CN=broker
        Subject Public Key Info:
            Public Key Algorithm: rsaEncryption
                Public-Key: (2048 bit)
                Modulus:
                    00:b2:09:91:be:84:42:bb:b4:b8:f4:c5:49:4c:3d:
                    bc:73:88:22:3f:59:55:42:47:7b:d5:15:fc:ee:23:
                    33:ae:a2:11:bd:65:82:82:70:25:61:00:0f:fd:98:
                    94:bb:6c:de:66:2f:df:15:a8:7f:3f:d2:a8:ff:ac:
                    c4:da:47:bb:90:5a:f5:a6:2c:53:8a:8f:ab:54:74:
                    a7:90:59:51:8e:23:2f:7a:14:7a:08:12:a8:c5:f7:
                    48:40:eb:e1:c1:c0:20:7d:ed:ac:61:fa:ba:a9:67:
                    d2:f7:8a:69:da:40:d8:fe:3d:1c:56:45:07:07:93:
                    37:f3:fa:4d:f7:0e:18:e1:75:f9:0f:36:56:00:54:
                    c6:9d:b3:09:f3:e9:8e:44:08:76:fe:f6:6a:10:77:
                    06:ba:bb:a5:79:e2:e6:da:66:9d:14:39:85:2f:fc:
                    41:40:9c:3e:c6:97:5d:5f:28:d5:68:7d:94:bc:5b:
                    8a:70:92:2c:28:08:63:a5:ee:78:fe:e0:2e:05:05:
                    3d:43:f6:80:8f:bd:01:e0:33:e1:1a:50:12:4e:ef:
                    d7:13:48:ea:b3:2a:5e:25:d5:ca:c6:6d:ae:9b:cb:
                    f4:30:f5:68:ae:c5:63:5f:06:ca:c0:40:9e:0e:55:
                    0c:ee:8c:36:12:5d:f8:24:7c:dd:63:88:f6:7e:11:
                    d7:55
                Exponent: 65537 (0x10001)
        X509v3 extensions:
            X509v3 Basic Constraints: 
                CA:FALSE
            X509v3 Subject Key Identifier: 
                6B:22:36:5C:B3:21:2F:A5:88:51:26:BC:02:A1:F8:A2:09:AC:16:6C
            X509v3 Authority Key Identifier: 
                keyid:14:B5:CC:F6:FD:C7:6A:62:10:D2:A7:CE:71:9A:60:70:57:5F:79:01
                DirName:/CN=Easy-RSA CA
                serial:2F:24:B5:35:DD:AF:26:EF:67:30:88:3E:E5:61:14:29:4A:53:B8:80
            X509v3 Extended Key Usage: 
                TLS Web Server Authentication
            X509v3 Key Usage: 
                Digital Signature, Key Encipherment
            X509v3 Subject Alternative Name: 
                DNS:broker
    Signature Algorithm: sha256WithRSAEncryption
    Signature Value:
        cb:92:fb:d5:f3:4f:01:b7:17:d0:06:3c:b7:b7:d4:c8:8e:e0:
        8b:bd:5f:45:1f:84:4b:ed:74:7e:ec:ea:37:2b:22:8b:a1:08:
        81:70:8f:bb:6f:82:8b:f9:78:bf:ce:09:72:14:cc:6d:e7:73:
        0a:28:bd:c5:d7:bc:ed:08:44:c3:3f:57:47:88:78:92:e6:cb:
        ef:51:3c:41:b1:1b:50:d0:68:a8:0f:0b:61:68:b8:af:14:28:
        c3:db:2f:02:84:48:d4:1b:3b:47:ab:bf:ce:9d:13:eb:a3:27:
        e4:02:00:8b:38:f8:f5:36:c8:cd:eb:8b:23:65:57:4c:22:d6:
        36:a1:d2:5c:e0:c2:92:34:c1:a2:26:ad:77:11:30:a0:aa:c0:
        9c:5c:cb:c6:ac:47:12:de:0a:52:42:48:22:07:1b:fe:9d:4d:
        dc:fe:06:41:66:27:63:00:0e:7d:29:64:33:8b:b4:58:86:e9:
        9d:42:4c:bc:48:97:b8:68:cf:4a:04:f5:b5:4f:fd:75:a1:df:
        e6:dc:d6:d2:52:85:6b:1c:63:a9:1b:2b:4c:03:e6:b4:cc:7c:
        e4:5c:e5:4a:84:61:7c:81:e7:e0:e2:2b:1a:67:54:d1:57:ff:
        8a:c7:0f:b9:7d:94:7e:50:ce:cd:1d:46:23:4f:f5:d7:ef:ba:
        cf:70:4c:15
-----BEGIN CERTIFICATE-----
MIIDZzCCAk+gAwIBAgIQBAnWRdLPl58x5f+nRtnaYzANBgkqhkiG9w0BAQsFADAW
MRQwEgYDVQQDDAtFYXN5LVJTQSBDQTAeFw0yNDA0MDgwNzMxNTlaFw0yNjA3MTIw
NzMxNTlaMBExDzANBgNVBAMMBmJyb2tlcjCCASIwDQYJKoZIhvcNAQEBBQADggEP
ADCCAQoCggEBALIJkb6EQru0uPTFSUw9vHOIIj9ZVUJHe9UV/O4jM66iEb1lgoJw
JWEAD/2YlLts3mYv3xWofz/SqP+sxNpHu5Ba9aYsU4qPq1R0p5BZUY4jL3oUeggS
qMX3SEDr4cHAIH3trGH6uqln0veKadpA2P49HFZFBweTN/P6TfcOGOF1+Q82VgBU
xp2zCfPpjkQIdv72ahB3Brq7pXni5tpmnRQ5hS/8QUCcPsaXXV8o1Wh9lLxbinCS
LCgIY6XueP7gLgUFPUP2gI+9AeAz4RpQEk7v1xNI6rMqXiXVysZtrpvL9DD1aK7F
Y18GysBAng5VDO6MNhJd+CR83WOI9n4R11UCAwEAAaOBtTCBsjAJBgNVHRMEAjAA
MB0GA1UdDgQWBBRrIjZcsyEvpYhRJrwCofiiCawWbDBRBgNVHSMESjBIgBQUtcz2
/cdqYhDSp85xmmBwV195AaEapBgwFjEUMBIGA1UEAwwLRWFzeS1SU0EgQ0GCFC8k
tTXdrybvZzCIPuVhFClKU7iAMBMGA1UdJQQMMAoGCCsGAQUFBwMBMAsGA1UdDwQE
AwIFoDARBgNVHREECjAIggZicm9rZXIwDQYJKoZIhvcNAQELBQADggEBAMuS+9Xz
TwG3F9AGPLe31MiO4Iu9X0UfhEvtdH7s6jcrIouhCIFwj7tvgov5eL/OCXIUzG3n
cwoovcXXvO0IRMM/V0eIeJLmy+9RPEGxG1DQaKgPC2FouK8UKMPbLwKESNQbO0er
v86dE+ujJ+QCAIs4+PU2yM3riyNlV0wi1jah0lzgwpI0waImrXcRMKCqwJxcy8as
RxLeClJCSCIHG/6dTdz+BkFmJ2MADn0pZDOLtFiG6Z1CTLxIl7hoz0oE9bVP/XWh
3+bc1tJShWscY6kbK0wD5rTMfORc5UqEYXyB5+DiKxpnVNFX/4rHD7l9lH5Qzs0d
RiNP9dfvus9wTBU=
-----END CERTIFICATE-----
