Certificate:
    Data:
        Version: 3 (0x2)
        Serial Number:
            97:f4:e5:2d:26:c6:08:1e:36:be:6d:af:27:e5:df:03
        Signature Algorithm: sha256WithRSAEncryption
        Issuer: CN=Easy-RSA CA
        Validity
            Not Before: Apr  8 07:34:01 2024 GMT
            Not After : Jul 12 07:34:01 2026 GMT
        Subject: CN=yes
        Subject Public Key Info:
            Public Key Algorithm: rsaEncryption
                Public-Key: (2048 bit)
                Modulus:
                    00:bd:4a:75:04:7c:3e:c0:0d:79:96:bd:51:b2:fa:
                    d5:26:69:37:64:82:36:e7:46:52:85:c1:d2:71:89:
                    b0:e9:07:f1:0a:a9:73:c5:ba:9c:2b:35:0a:11:80:
                    12:ca:9d:53:44:6d:b4:70:d9:a5:86:35:66:5a:a5:
                    5e:cc:5e:a4:0e:ea:e9:d1:63:5b:71:bd:70:7e:4c:
                    2c:f2:b0:b3:b3:1b:38:ce:1f:66:b3:0e:4f:14:cc:
                    c3:66:a3:e4:65:97:cd:62:3b:ce:61:b3:37:9a:4f:
                    ec:21:c5:a2:ae:23:a9:7b:66:06:9f:6a:ba:1d:3e:
                    ce:f9:9e:64:a5:65:49:47:de:0a:09:70:d5:24:5f:
                    b2:23:0c:0d:a1:6e:01:8c:49:b8:d0:ac:9d:24:92:
                    3e:13:da:83:7d:09:55:a0:21:b3:a2:63:21:b4:ec:
                    91:e2:e5:dc:2d:cc:ed:54:5b:6d:10:09:3a:9f:2a:
                    24:55:bc:b4:d1:b6:b3:eb:a6:42:ba:b0:7a:4e:eb:
                    78:0d:99:fa:d6:a6:d8:19:b8:7b:3a:b6:41:a9:6c:
                    52:57:c7:3e:54:84:3e:d1:5d:8f:2a:17:1a:2f:f6:
                    67:46:e5:92:95:c6:f0:31:58:82:49:7a:e4:57:e3:
                    06:a1:c9:83:a2:d3:f3:df:6a:ef:1b:16:10:2e:f0:
                    65:43
                Exponent: 65537 (0x10001)
        X509v3 extensions:
            X509v3 Basic Constraints: 
                CA:FALSE
            X509v3 Subject Key Identifier: 
                41:83:1E:A6:44:9C:52:31:D6:B3:50:C0:3F:EB:E9:EA:FC:A0:27:12
            X509v3 Authority Key Identifier: 
                keyid:14:B5:CC:F6:FD:C7:6A:62:10:D2:A7:CE:71:9A:60:70:57:5F:79:01
                DirName:/CN=Easy-RSA CA
                serial:2F:24:B5:35:DD:AF:26:EF:67:30:88:3E:E5:61:14:29:4A:53:B8:80
            X509v3 Extended Key Usage: 
                TLS Web Client Authentication
            X509v3 Key Usage: 
                Digital Signature
    Signature Algorithm: sha256WithRSAEncryption
    Signature Value:
        32:4f:26:ca:33:bf:8a:ce:a3:ae:3b:b6:6e:f5:a7:9e:aa:ed:
        e3:43:5e:1e:8c:79:53:0f:8f:ec:f1:b2:ad:c1:c9:e8:dc:03:
        e2:be:22:21:f7:18:7e:9f:15:e9:62:59:74:72:cc:34:80:e4:
        19:f3:35:dd:da:60:44:cf:25:63:f4:6f:68:0e:c4:b8:1d:a7:
        7d:a4:83:12:ef:71:21:ff:13:90:0b:0f:52:89:da:5f:91:23:
        52:fc:33:3c:ed:37:e7:f0:89:de:6d:f0:6f:27:e9:a2:ef:a7:
        48:9e:2a:73:73:53:27:e4:46:0d:2e:54:c8:1b:2c:81:d8:3c:
        5a:3b:4f:af:1a:dc:7c:c9:89:a5:96:0b:66:8e:7f:69:3c:d7:
        b9:98:e3:f2:38:a8:5a:54:0d:6c:08:85:be:3f:ea:56:1b:2c:
        30:bb:70:2a:c5:60:d1:bb:1a:62:04:bd:84:38:99:47:33:9e:
        3b:7c:29:fd:a9:e8:62:0a:dc:b4:4e:80:47:88:f1:66:57:ce:
        8f:d2:20:3c:6c:ad:b9:7c:c5:08:42:1e:6f:af:7a:74:d1:96:
        27:d7:34:99:d8:5c:e2:32:6e:aa:a4:89:71:9c:eb:73:e0:b0:
        8d:08:d7:80:ef:7d:9f:42:78:35:e9:5f:d9:e3:df:26:1d:ac:
        09:bc:16:43
-----BEGIN CERTIFICATE-----
MIIDUjCCAjqgAwIBAgIRAJf05S0mxggeNr5tryfl3wMwDQYJKoZIhvcNAQELBQAw
FjEUMBIGA1UEAwwLRWFzeS1SU0EgQ0EwHhcNMjQwNDA4MDczNDAxWhcNMjYwNzEy
MDczNDAxWjAOMQwwCgYDVQQDDAN5ZXMwggEiMA0GCSqGSIb3DQEBAQUAA4IBDwAw
ggEKAoIBAQC9SnUEfD7ADXmWvVGy+tUmaTdkgjbnRlKFwdJxibDpB/EKqXPFupwr
NQoRgBLKnVNEbbRw2aWGNWZapV7MXqQO6unRY1txvXB+TCzysLOzGzjOH2azDk8U
zMNmo+Rll81iO85hszeaT+whxaKuI6l7ZgafarodPs75nmSlZUlH3goJcNUkX7Ij
DA2hbgGMSbjQrJ0kkj4T2oN9CVWgIbOiYyG07JHi5dwtzO1UW20QCTqfKiRVvLTR
trPrpkK6sHpO63gNmfrWptgZuHs6tkGpbFJXxz5UhD7RXY8qFxov9mdG5ZKVxvAx
WIJJeuRX4wahyYOi0/Pfau8bFhAu8GVDAgMBAAGjgaIwgZ8wCQYDVR0TBAIwADAd
BgNVHQ4EFgQUQYMepkScUjHWs1DAP+vp6vygJxIwUQYDVR0jBEowSIAUFLXM9v3H
amIQ0qfOcZpgcFdfeQGhGqQYMBYxFDASBgNVBAMMC0Vhc3ktUlNBIENBghQvJLU1
3a8m72cwiD7lYRQpSlO4gDATBgNVHSUEDDAKBggrBgEFBQcDAjALBgNVHQ8EBAMC
B4AwDQYJKoZIhvcNAQELBQADggEBADJPJsozv4rOo647tm71p56q7eNDXh6MeVMP
j+zxsq3ByejcA+K+IiH3GH6fFeliWXRyzDSA5BnzNd3aYETPJWP0b2gOxLgdp32k
gxLvcSH/E5ALD1KJ2l+RI1L8MzztN+fwid5t8G8n6aLvp0ieKnNzUyfkRg0uVMgb
LIHYPFo7T68a3HzJiaWWC2aOf2k817mY4/I4qFpUDWwIhb4/6lYbLDC7cCrFYNG7
GmIEvYQ4mUcznjt8Kf2p6GIK3LROgEeI8WZXzo/SIDxsrbl8xQhCHm+venTRlifX
NJnYXOIybqqkiXGc63PgsI0I14DvfZ9CeDXpX9nj3yYdrAm8FkM=
-----END CERTIFICATE-----
