Certificate:
    Data:
        Version: 3 (0x2)
        Serial Number:
            d3:99:58:ea:a6:e6:0d:d1:54:dd:ea:5f:dd:ca:c3:ea
        Signature Algorithm: sha256WithRSAEncryption
        Issuer: CN=Easy-RSA CA
        Validity
            Not Before: Apr  8 07:30:10 2024 GMT
            Not After : Jul 12 07:30:10 2026 GMT
        Subject: CN=broker
        Subject Public Key Info:
            Public Key Algorithm: rsaEncryption
                Public-Key: (2048 bit)
                Modulus:
                    00:b2:09:91:be:84:42:bb:b4:b8:f4:c5:49:4c:3d:
                    bc:73:88:22:3f:59:55:42:47:7b:d5:15:fc:ee:23:
                    33:ae:a2:11:bd:65:82:82:70:25:61:00:0f:fd:98:
                    94:bb:6c:de:66:2f:df:15:a8:7f:3f:d2:a8:ff:ac:
                    c4:da:47:bb:90:5a:f5:a6:2c:53:8a:8f:ab:54:74:
                    a7:90:59:51:8e:23:2f:7a:14:7a:08:12:a8:c5:f7:
                    48:40:eb:e1:c1:c0:20:7d:ed:ac:61:fa:ba:a9:67:
                    d2:f7:8a:69:da:40:d8:fe:3d:1c:56:45:07:07:93:
                    37:f3:fa:4d:f7:0e:18:e1:75:f9:0f:36:56:00:54:
                    c6:9d:b3:09:f3:e9:8e:44:08:76:fe:f6:6a:10:77:
                    06:ba:bb:a5:79:e2:e6:da:66:9d:14:39:85:2f:fc:
                    41:40:9c:3e:c6:97:5d:5f:28:d5:68:7d:94:bc:5b:
                    8a:70:92:2c:28:08:63:a5:ee:78:fe:e0:2e:05:05:
                    3d:43:f6:80:8f:bd:01:e0:33:e1:1a:50:12:4e:ef:
                    d7:13:48:ea:b3:2a:5e:25:d5:ca:c6:6d:ae:9b:cb:
                    f4:30:f5:68:ae:c5:63:5f:06:ca:c0:40:9e:0e:55:
                    0c:ee:8c:36:12:5d:f8:24:7c:dd:63:88:f6:7e:11:
                    d7:55
                Exponent: 65537 (0x10001)
        X509v3 extensions:
            X509v3 Basic Constraints: 
                CA:FALSE
            X509v3 Subject Key Identifier: 
                6B:22:36:5C:B3:21:2F:A5:88:51:26:BC:02:A1:F8:A2:09:AC:16:6C
            X509v3 Authority Key Identifier: 
                keyid:14:B5:CC:F6:FD:C7:6A:62:10:D2:A7:CE:71:9A:60:70:57:5F:79:01
                DirName:/CN=Easy-RSA CA
                serial:2F:24:B5:35:DD:AF:26:EF:67:30:88:3E:E5:61:14:29:4A:53:B8:80
            X509v3 Extended Key Usage: 
                TLS Web Server Authentication
            X509v3 Key Usage: 
                Digital Signature, Key Encipherment
            X509v3 Subject Alternative Name: 
                DNS:broker
    Signature Algorithm: sha256WithRSAEncryption
    Signature Value:
        83:d8:d5:e9:2f:96:dd:67:bf:1c:3f:2d:c7:42:d9:7f:ce:15:
        92:d6:d3:e6:b5:27:3b:eb:a6:11:5d:f6:22:56:b8:e1:56:6e:
        05:48:79:69:6f:51:61:82:a9:3c:d5:92:1c:74:5b:93:9e:3f:
        ae:9b:ce:8b:78:bf:46:7d:f3:74:53:9e:7e:e2:67:d7:d2:8f:
        ad:77:ab:b4:e0:ee:99:96:2f:b8:85:09:b4:a4:a4:26:4d:a3:
        55:fb:e6:d5:ba:16:59:bd:59:5f:63:fe:ac:ff:9d:19:c3:f1:
        d8:5f:08:1c:f8:00:62:ad:b2:e8:55:07:2f:1d:62:72:13:c9:
        8d:ee:6f:32:08:3c:b7:bf:b0:d2:3b:82:6a:6d:d0:ac:0d:be:
        5a:d0:df:71:31:7f:8a:04:af:e3:de:ed:8f:66:14:ef:0f:4b:
        b5:31:62:bd:73:c1:12:1e:f2:1f:f8:b3:62:0d:bc:dc:97:e6:
        95:c5:c1:ce:9f:1f:7c:7f:da:ce:2e:cd:21:36:36:54:20:6a:
        f7:cf:88:11:5d:6e:34:4e:09:4b:c9:bd:6a:c8:4c:3a:da:71:
        3e:3b:33:e4:62:50:02:c9:10:7e:9e:0c:3c:19:8f:ad:84:68:
        b5:85:f6:84:32:41:72:bd:c7:f4:25:c0:3f:4c:37:74:b3:cc:
        83:10:31:6b
-----BEGIN CERTIFICATE-----
MIIDaDCCAlCgAwIBAgIRANOZWOqm5g3RVN3qX93Kw+owDQYJKoZIhvcNAQELBQAw
FjEUMBIGA1UEAwwLRWFzeS1SU0EgQ0EwHhcNMjQwNDA4MDczMDEwWhcNMjYwNzEy
MDczMDEwWjARMQ8wDQYDVQQDDAZicm9rZXIwggEiMA0GCSqGSIb3DQEBAQUAA4IB
DwAwggEKAoIBAQCyCZG+hEK7tLj0xUlMPbxziCI/WVVCR3vVFfzuIzOuohG9ZYKC
cCVhAA/9mJS7bN5mL98VqH8/0qj/rMTaR7uQWvWmLFOKj6tUdKeQWVGOIy96FHoI
EqjF90hA6+HBwCB97axh+rqpZ9L3imnaQNj+PRxWRQcHkzfz+k33DhjhdfkPNlYA
VMadswnz6Y5ECHb+9moQdwa6u6V54ubaZp0UOYUv/EFAnD7Gl11fKNVofZS8W4pw
kiwoCGOl7nj+4C4FBT1D9oCPvQHgM+EaUBJO79cTSOqzKl4l1crGba6by/Qw9Wiu
xWNfBsrAQJ4OVQzujDYSXfgkfN1jiPZ+EddVAgMBAAGjgbUwgbIwCQYDVR0TBAIw
ADAdBgNVHQ4EFgQUayI2XLMhL6WIUSa8AqH4ogmsFmwwUQYDVR0jBEowSIAUFLXM
9v3HamIQ0qfOcZpgcFdfeQGhGqQYMBYxFDASBgNVBAMMC0Vhc3ktUlNBIENBghQv
JLU13a8m72cwiD7lYRQpSlO4gDATBgNVHSUEDDAKBggrBgEFBQcDATALBgNVHQ8E
BAMCBaAwEQYDVR0RBAowCIIGYnJva2VyMA0GCSqGSIb3DQEBCwUAA4IBAQCD2NXp
L5bdZ78cPy3HQtl/zhWS1tPmtSc766YRXfYiVrjhVm4FSHlpb1Fhgqk81ZIcdFuT
nj+um86LeL9GffN0U55+4mfX0o+td6u04O6Zli+4hQm0pKQmTaNV++bVuhZZvVlf
Y/6s/50Zw/HYXwgc+ABirbLoVQcvHWJyE8mN7m8yCDy3v7DSO4JqbdCsDb5a0N9x
MX+KBK/j3u2PZhTvD0u1MWK9c8ESHvIf+LNiDbzcl+aVxcHOnx98f9rOLs0hNjZU
IGr3z4gRXW40TglLyb1qyEw62nE+OzPkYlACyRB+ngw8GY+thGi1hfaEMkFyvcf0
JcA/TDd0s8yDEDFr
-----END CERTIFICATE-----
