Certificate:
    Data:
        Version: 3 (0x2)
        Serial Number:
            82:87:56:4b:6d:af:63:48:d8:de:7c:cd:8c:89:db:26
        Signature Algorithm: sha256WithRSAEncryption
        Issuer: CN=Easy-RSA CA
        Validity
            Not Before: Apr  8 10:01:16 2024 GMT
            Not After : Jul 12 10:01:16 2026 GMT
        Subject: CN=client_c
        Subject Public Key Info:
            Public Key Algorithm: rsaEncryption
                Public-Key: (2048 bit)
                Modulus:
                    00:b9:ae:fe:da:36:00:e2:95:1e:b3:55:88:f7:44:
                    b4:83:ed:ea:75:f1:09:d3:b0:45:89:27:2d:8b:e5:
                    13:da:54:46:c5:0c:86:31:13:42:7c:62:56:b2:3d:
                    23:29:3e:b1:11:e3:fd:bf:57:a5:62:25:81:36:f2:
                    a2:5b:94:13:8e:17:56:89:59:24:23:68:f1:49:e8:
                    93:31:3c:69:a0:91:67:b3:f9:f7:21:2d:ce:ba:7a:
                    06:01:e4:3e:05:26:d4:8c:62:54:ed:48:0f:61:61:
                    4a:f9:6d:60:71:94:e5:44:53:91:3a:d6:6f:b7:42:
                    d1:07:b6:eb:74:92:5a:b8:a1:85:50:fe:4e:72:53:
                    27:58:d2:3b:89:84:f2:0c:9f:05:6f:45:ae:39:dc:
                    22:af:a2:75:1e:9f:11:72:e0:b8:73:27:0a:e4:f3:
                    65:57:11:4c:0a:42:6f:f6:b6:9a:27:41:b4:ee:c6:
                    75:a6:8b:8b:64:f3:32:c2:32:8b:d2:eb:31:57:de:
                    38:75:c7:b9:e4:00:47:5b:4b:35:82:a1:93:a9:bb:
                    da:e0:68:88:88:e1:67:2a:55:db:19:59:0b:62:39:
                    40:35:ed:39:df:3f:2f:6a:c8:0f:ff:b2:28:f7:7f:
                    02:d6:9a:7f:bf:0a:42:df:cb:79:4e:12:c6:66:03:
                    51:af
                Exponent: 65537 (0x10001)
        X509v3 extensions:
            X509v3 Basic Constraints: 
                CA:FALSE
            X509v3 Subject Key Identifier: 
                96:C8:45:F3:D3:18:57:4C:8E:F2:77:18:5C:5F:DD:7D:A1:3B:15:66
            X509v3 Authority Key Identifier: 
                keyid:14:B5:CC:F6:FD:C7:6A:62:10:D2:A7:CE:71:9A:60:70:57:5F:79:01
                DirName:/CN=Easy-RSA CA
                serial:2F:24:B5:35:DD:AF:26:EF:67:30:88:3E:E5:61:14:29:4A:53:B8:80
            X509v3 Extended Key Usage: 
                TLS Web Client Authentication
            X509v3 Key Usage: 
                Digital Signature
    Signature Algorithm: sha256WithRSAEncryption
    Signature Value:
        8b:f5:7e:9d:cc:86:79:f4:a4:74:fe:b1:97:f2:49:4b:71:6f:
        73:09:b4:8b:43:14:9a:e5:43:6a:cc:7b:7b:4a:05:38:43:13:
        43:e0:d5:bb:3d:75:6d:73:54:ac:67:6a:99:16:f2:a2:82:c2:
        71:ca:d5:6a:ff:56:c8:2e:d6:24:63:bc:d8:aa:89:34:38:52:
        02:4b:46:d3:70:48:40:39:e9:df:02:cc:38:83:c8:33:75:e9:
        cf:1d:1f:ff:fb:8e:06:92:70:65:48:af:c0:42:d5:f5:fd:cd:
        eb:d7:bd:8a:01:7d:1f:f0:20:89:e5:1f:5f:11:b0:8f:c9:19:
        57:ae:71:3f:dd:ed:70:40:19:0d:ad:50:0a:8b:fc:0a:23:22:
        29:17:5e:79:6d:4b:b6:73:13:19:a6:ce:a6:2b:e0:13:ee:57:
        0a:85:87:df:2d:c9:89:7e:4e:4e:ef:75:68:96:45:68:0b:03:
        65:8e:2a:66:7f:81:37:59:32:f0:f7:24:1b:88:ef:26:3b:6c:
        ff:6a:0d:9b:d2:55:f0:06:9d:e3:b6:5b:9f:c5:65:8d:3e:43:
        b2:4a:8b:d5:66:a7:a7:59:93:29:14:09:3b:dd:09:25:72:00:
        a2:a0:fd:68:b5:a0:54:8c:1e:3a:28:84:be:73:6a:19:a5:14:
        7c:f6:37:81
-----BEGIN CERTIFICATE-----
MIIDVzCCAj+gAwIBAgIRAIKHVkttr2NI2N58zYyJ2yYwDQYJKoZIhvcNAQELBQAw
FjEUMBIGA1UEAwwLRWFzeS1SU0EgQ0EwHhcNMjQwNDA4MTAwMTE2WhcNMjYwNzEy
MTAwMTE2WjATMREwDwYDVQQDDAhjbGllbnRfYzCCASIwDQYJKoZIhvcNAQEBBQAD
ggEPADCCAQoCggEBALmu/to2AOKVHrNViPdEtIPt6nXxCdOwRYknLYvlE9pURsUM
hjETQnxiVrI9Iyk+sRHj/b9XpWIlgTbyoluUE44XVolZJCNo8UnokzE8aaCRZ7P5
9yEtzrp6BgHkPgUm1IxiVO1ID2FhSvltYHGU5URTkTrWb7dC0Qe263SSWrihhVD+
TnJTJ1jSO4mE8gyfBW9FrjncIq+idR6fEXLguHMnCuTzZVcRTApCb/a2midBtO7G
daaLi2TzMsIyi9LrMVfeOHXHueQAR1tLNYKhk6m72uBoiIjhZypV2xlZC2I5QDXt
Od8/L2rID/+yKPd/Ataaf78KQt/LeU4SxmYDUa8CAwEAAaOBojCBnzAJBgNVHRME
AjAAMB0GA1UdDgQWBBSWyEXz0xhXTI7ydxhcX919oTsVZjBRBgNVHSMESjBIgBQU
tcz2/cdqYhDSp85xmmBwV195AaEapBgwFjEUMBIGA1UEAwwLRWFzeS1SU0EgQ0GC
FC8ktTXdrybvZzCIPuVhFClKU7iAMBMGA1UdJQQMMAoGCCsGAQUFBwMCMAsGA1Ud
DwQEAwIHgDANBgkqhkiG9w0BAQsFAAOCAQEAi/V+ncyGefSkdP6xl/JJS3Fvcwm0
i0MUmuVDasx7e0oFOEMTQ+DVuz11bXNUrGdqmRbyooLCccrVav9WyC7WJGO82KqJ
NDhSAktG03BIQDnp3wLMOIPIM3Xpzx0f//uOBpJwZUivwELV9f3N69e9igF9H/Ag
ieUfXxGwj8kZV65xP93tcEAZDa1QCov8CiMiKRdeeW1LtnMTGabOpivgE+5XCoWH
3y3JiX5OTu91aJZFaAsDZY4qZn+BN1ky8PckG4jvJjts/2oNm9JV8Aad47Zbn8Vl
jT5DskqL1Wanp1mTKRQJO90JJXIAoqD9aLWgVIweOiiEvnNqGaUUfPY3gQ==
-----END CERTIFICATE-----
